; Function Attrs: mustprogress uwtable
define internal noundef ptr @"_ZNSt17_Function_handlerIFP25dependent_expr_simplifierR11ast_managerRK10params_refR20dependent_expr_stateEZ15install_tacticsR14tactic_managerE4$_10E9_M_invokeERKSt9_Any_dataS3_S6_S8_"(ptr nonnull readnone align 8 captures(none) %0, ptr noundef nonnull align 8 dereferenceable(976) %1, ptr noundef nonnull align 8 dereferenceable(8) %2, ptr noundef nonnull align 8 dereferenceable(160) %3) #3 align 2 personality ptr @__gxx_personality_v0 {
  %5 = alloca %class.params_ref, align 8
  %6 = tail call noalias noundef ptr @_ZN6memory8allocateEm(i64 noundef 64)
  %7 = getelementptr inbounds nuw i8, ptr %6, i64 8
  store ptr %1, ptr %7, align 8, !tbaa !59
  %8 = getelementptr inbounds nuw i8, ptr %6, i64 16
  store ptr %3, ptr %8, align 8, !tbaa !304
  %9 = getelementptr inbounds nuw i8, ptr %6, i64 24
  %10 = getelementptr inbounds nuw i8, ptr %3, i64 104
  store ptr %10, ptr %9, align 8, !tbaa !270
  store ptr getelementptr inbounds nuw inrange(-16, 88) (i8, ptr @_ZTV19rewriter_simplifier, i64 16), ptr %6, align 8, !tbaa !22
  %11 = getelementptr inbounds nuw i8, ptr %6, i64 32
  store i32 0, ptr %11, align 8, !tbaa !400
  %12 = getelementptr inbounds nuw i8, ptr %6, i64 40
  store ptr null, ptr %12, align 8, !tbaa !19
  %13 = getelementptr inbounds nuw i8, ptr %6, i64 48
  call void @llvm.lifetime.start.p0(i64 8, ptr nonnull %5) #23
  store ptr null, ptr %5, align 8, !tbaa !19
  invoke void @_ZN11th_rewriterC1ER11ast_managerRK10params_ref(ptr noundef nonnull align 8 dereferenceable(16) %13, ptr noundef nonnull align 8 dereferenceable(976) %1, ptr noundef nonnull align 8 dereferenceable(8) %5)
          to label %14 unwind label %18

14:                                               ; preds = %4
  call void @_ZN10params_refD1Ev(ptr noundef nonnull align 8 dereferenceable(8) %5) #23
  call void @llvm.lifetime.end.p0(i64 8, ptr nonnull %5) #23
  %15 = load ptr, ptr %6, align 8, !tbaa !22
  %16 = getelementptr inbounds nuw i8, ptr %15, i64 64
  %17 = load ptr, ptr %16, align 8
  invoke void %17(ptr noundef nonnull align 8 dereferenceable(64) %6, ptr noundef nonnull align 8 dereferenceable(8) %2)
          to label %"_ZSt10__invoke_rIP25dependent_expr_simplifierRZ15install_tacticsR14tactic_managerE4$_10JR11ast_managerRK10params_refR20dependent_expr_stateEENSt9enable_ifIX16is_invocable_r_vIT_T0_DpT1_EESE_E4typeEOSF_DpOSG_.exit" unwind label %20

18:                                               ; preds = %4
  %19 = landingpad { ptr, i32 }
          cleanup
  call void @_ZN10params_refD1Ev(ptr noundef nonnull align 8 dereferenceable(8) %5) #23
  call void @llvm.lifetime.end.p0(i64 8, ptr nonnull %5) #23
  br label %22

20:                                               ; preds = %14
  %21 = landingpad { ptr, i32 }
          cleanup
  call void @_ZN11th_rewriterD1Ev(ptr noundef nonnull align 8 dereferenceable(16) %13) #23
  br label %22

22:                                               ; preds = %20, %18
  %.pn.i.i.i.i = phi { ptr, i32 } [ %21, %20 ], [ %19, %18 ]
  call void @_ZN10params_refD1Ev(ptr noundef nonnull align 8 dereferenceable(8) %12) #23
  resume { ptr, i32 } %.pn.i.i.i.i

"_ZSt10__invoke_rIP25dependent_expr_simplifierRZ15install_tacticsR14tactic_managerE4$_10JR11ast_managerRK10params_refR20dependent_expr_stateEENSt9enable_ifIX16is_invocable_r_vIT_T0_DpT1_EESE_E4typeEOSF_DpOSG_.exit": ; preds = %14
  ret ptr %6
}